; ModuleID = 'source-C-CXX/4/1153.c'
source_filename = "source-C-CXX/4/1153.c"
target datalayout = "e-m:e-p270:32:32-p271:32:32-p272:64:64-i64:64-f80:128-n8:16:32:64-S128"
target triple = "x86_64-pc-linux-gnu"

@.str = private unnamed_addr constant [4 x i8] c"%lf\00", align 1
@.str.1 = private unnamed_addr constant [3 x i8] c"%s\00", align 1
@.str.2 = private unnamed_addr constant [6 x i8] c"error\00", align 1
@.str.3 = private unnamed_addr constant [4 x i8] c"yes\00", align 1
@.str.4 = private unnamed_addr constant [3 x i8] c"no\00", align 1

; Function Attrs: nofree nounwind sspstrong uwtable
define dso_local i32 @main() local_unnamed_addr #0 {
  %1 = alloca double, align 8
  %2 = alloca [2 x [1000 x i8]], align 16
  %3 = bitcast double* %1 to i8*
  call void @llvm.lifetime.start.p0i8(i64 8, i8* nonnull %3) #4
  %4 = getelementptr inbounds [2 x [1000 x i8]], [2 x [1000 x i8]]* %2, i64 0, i64 0, i64 0
  call void @llvm.lifetime.start.p0i8(i64 2000, i8* nonnull %4) #4
  %5 = call i32 (i8*, ...) @__isoc99_scanf(i8* getelementptr inbounds ([4 x i8], [4 x i8]* @.str, i64 0, i64 0), double* nonnull %1)
  %6 = call i32 (i8*, ...) @__isoc99_scanf(i8* getelementptr inbounds ([3 x i8], [3 x i8]* @.str.1, i64 0, i64 0), i8* nonnull %4)
  %7 = getelementptr inbounds [2 x [1000 x i8]], [2 x [1000 x i8]]* %2, i64 0, i64 1, i64 0
  %8 = call i32 (i8*, ...) @__isoc99_scanf(i8* getelementptr inbounds ([3 x i8], [3 x i8]* @.str.1, i64 0, i64 0), i8* nonnull %7)
  %9 = call i64 @strlen(i8* noundef nonnull %4) #5
  %10 = call i64 @strlen(i8* noundef nonnull %7) #5
  %11 = icmp eq i64 %9, %10
  br i1 %11, label %12, label %41

12:                                               ; preds = %0
  %13 = icmp eq i64 %9, 0
  br i1 %13, label %34, label %14

14:                                               ; preds = %12, %24
  %15 = phi i64 [ %30, %24 ], [ 0, %12 ]
  %16 = phi i32 [ %29, %24 ], [ 0, %12 ]
  %17 = getelementptr inbounds [2 x [1000 x i8]], [2 x [1000 x i8]]* %2, i64 0, i64 0, i64 %15
  %18 = load i8, i8* %17, align 1, !tbaa !5
  switch i8 %18, label %19 [
    i8 65, label %24
    i8 84, label %24
    i8 67, label %24
    i8 71, label %24
  ]

19:                                               ; preds = %14
  %20 = getelementptr inbounds [2 x [1000 x i8]], [2 x [1000 x i8]]* %2, i64 0, i64 1, i64 %15
  %21 = load i8, i8* %20, align 1, !tbaa !5
  switch i8 %21, label %22 [
    i8 65, label %24
    i8 84, label %24
    i8 67, label %24
    i8 71, label %24
  ]

22:                                               ; preds = %19
  switch i8 %18, label %23 [
    i8 97, label %24
    i8 116, label %24
    i8 99, label %24
    i8 103, label %24
  ]

23:                                               ; preds = %22
  switch i8 %21, label %41 [
    i8 97, label %24
    i8 116, label %24
    i8 99, label %24
    i8 103, label %24
  ]

24:                                               ; preds = %23, %23, %23, %23, %22, %22, %22, %22, %19, %19, %19, %19, %14, %14, %14, %14
  %25 = getelementptr inbounds [2 x [1000 x i8]], [2 x [1000 x i8]]* %2, i64 0, i64 1, i64 %15
  %26 = load i8, i8* %25, align 1, !tbaa !5
  %27 = icmp eq i8 %18, %26
  %28 = zext i1 %27 to i32
  %29 = add nuw nsw i32 %16, %28
  %30 = add nuw i64 %15, 1
  %31 = icmp eq i64 %30, %9
  br i1 %31, label %32, label %14, !llvm.loop !8

32:                                               ; preds = %24
  %33 = sitofp i32 %29 to double
  br label %34

34:                                               ; preds = %32, %12
  %35 = phi double [ 0.000000e+00, %12 ], [ %33, %32 ]
  %36 = uitofp i64 %9 to double
  %37 = fdiv double %35, %36
  %38 = load double, double* %1, align 8, !tbaa !10
  %39 = fcmp ogt double %37, %38
  %40 = select i1 %39, i8* getelementptr inbounds ([4 x i8], [4 x i8]* @.str.3, i64 0, i64 0), i8* getelementptr inbounds ([3 x i8], [3 x i8]* @.str.4, i64 0, i64 0)
  br label %41

41:                                               ; preds = %23, %34, %0
  %42 = phi i8* [ getelementptr inbounds ([6 x i8], [6 x i8]* @.str.2, i64 0, i64 0), %0 ], [ %40, %34 ], [ getelementptr inbounds ([6 x i8], [6 x i8]* @.str.2, i64 0, i64 0), %23 ]
  %43 = call i32 (i8*, ...) @printf(i8* nonnull dereferenceable(1) %42)
  call void @llvm.lifetime.end.p0i8(i64 2000, i8* nonnull %4) #4
  call void @llvm.lifetime.end.p0i8(i64 8, i8* nonnull %3) #4
  ret i32 0
}

; Function Attrs: argmemonly mustprogress nofree nosync nounwind willreturn
declare void @llvm.lifetime.start.p0i8(i64 immarg, i8* nocapture) #1

; Function Attrs: nofree nounwind
declare noundef i32 @__isoc99_scanf(i8* nocapture noundef readonly, ...) local_unnamed_addr #2

; Function Attrs: argmemonly mustprogress nofree nounwind readonly willreturn
declare i64 @strlen(i8* nocapture) local_unnamed_addr #3

; Function Attrs: nofree nounwind
declare noundef i32 @printf(i8* nocapture noundef readonly, ...) local_unnamed_addr #2

; Function Attrs: argmemonly mustprogress nofree nosync nounwind willreturn
declare void @llvm.lifetime.end.p0i8(i64 immarg, i8* nocapture) #1


!llvm.module.flags = !{!0, !1, !2, !3}
!llvm.ident = !{!4}

!0 = !{i32 1, !"wchar_size", i32 4}
!1 = !{i32 7, !"PIC Level", i32 2}
!2 = !{i32 7, !"PIE Level", i32 2}
!3 = !{i32 7, !"uwtable", i32 1}
!4 = !{!"clang version 13.0.0"}
!5 = !{!6, !6, i64 0}
!6 = !{!"omnipotent char", !7, i64 0}
!7 = !{!"Simple C/C++ TBAA"}
!8 = distinct !{!8, !9}
!9 = !{!"llvm.loop.mustprogress"}
!10 = !{!11, !11, i64 0}
!11 = !{!"double", !6, i64 0}
